target datalayout = "e-m:e-p270:32:32-p271:32:32-p272:64:64-i64:64-i128:128-f80:128-n8:16:32:64-S128"
target triple = "x86_64-pc-linux-gnu"

%struct.asn1_string_st = type { i32, i32, ptr, i64 }

@.str.4 = private unnamed_addr constant [1 x i8] zeroinitializer, align 1
@.str.7 = private unnamed_addr constant [2 x i8] c"\0A\00", align 1
@.str.24 = private unnamed_addr constant [7 x i8] c"%02x%s\00", align 1
@.str.25 = private unnamed_addr constant [2 x i8] c":\00", align 1

; Function Attrs: nounwind uwtable
define i32 @X509_signature_dump(ptr noundef %0, ptr noundef %1, i32 noundef %2) #0 {
  %4 = alloca i32, align 4
  %5 = alloca ptr, align 8
  %6 = alloca ptr, align 8
  %7 = alloca i32, align 4
  %8 = alloca ptr, align 8
  %9 = alloca i32, align 4
  %10 = alloca i32, align 4
  %11 = alloca i32, align 4
  store ptr %0, ptr %5, align 8, !tbaa !15
  store ptr %1, ptr %6, align 8, !tbaa !22
  store i32 %2, ptr %7, align 4, !tbaa !17
  call void @llvm.lifetime.start.p0(i64 8, ptr %8) #4
  call void @llvm.lifetime.start.p0(i64 4, ptr %9) #4
  call void @llvm.lifetime.start.p0(i64 4, ptr %10) #4
  %12 = load ptr, ptr %6, align 8, !tbaa !22
  %13 = getelementptr inbounds nuw %struct.asn1_string_st, ptr %12, i32 0, i32 0
  %14 = load i32, ptr %13, align 8, !tbaa !30
  store i32 %14, ptr %10, align 4, !tbaa !17
  %15 = load ptr, ptr %6, align 8, !tbaa !22
  %16 = getelementptr inbounds nuw %struct.asn1_string_st, ptr %15, i32 0, i32 2
  %17 = load ptr, ptr %16, align 8, !tbaa !35
  store ptr %17, ptr %8, align 8, !tbaa !34
  store i32 0, ptr %9, align 4, !tbaa !17
  br label %18

18:                                               ; preds = %59, %3
  %19 = load i32, ptr %9, align 4, !tbaa !17
  %20 = load i32, ptr %10, align 4, !tbaa !17
  %21 = icmp slt i32 %19, %20
  br i1 %21, label %22, label %62

22:                                               ; preds = %18
  %23 = load i32, ptr %9, align 4, !tbaa !17
  %24 = srem i32 %23, 18
  %25 = icmp eq i32 %24, 0
  br i1 %25, label %26, label %42

26:                                               ; preds = %22
  %27 = load i32, ptr %9, align 4, !tbaa !17
  %28 = icmp sgt i32 %27, 0
  br i1 %28, label %29, label %34

29:                                               ; preds = %26
  %30 = load ptr, ptr %5, align 8, !tbaa !15
  %31 = call i32 @BIO_write(ptr noundef %30, ptr noundef @.str.7, i32 noundef 1)
  %32 = icmp sle i32 %31, 0
  br i1 %32, label %33, label %34

33:                                               ; preds = %29
  store i32 0, ptr %4, align 4
  store i32 1, ptr %11, align 4
  br label %68

34:                                               ; preds = %29, %26
  %35 = load ptr, ptr %5, align 8, !tbaa !15
  %36 = load i32, ptr %7, align 4, !tbaa !17
  %37 = load i32, ptr %7, align 4, !tbaa !17
  %38 = call i32 @BIO_indent(ptr noundef %35, i32 noundef %36, i32 noundef %37)
  %39 = icmp sle i32 %38, 0
  br i1 %39, label %40, label %41

40:                                               ; preds = %34
  store i32 0, ptr %4, align 4
  store i32 1, ptr %11, align 4
  br label %68

41:                                               ; preds = %34
  br label %42

42:                                               ; preds = %41, %22
  %43 = load ptr, ptr %5, align 8, !tbaa !15
  %44 = load ptr, ptr %8, align 8, !tbaa !34
  %45 = load i32, ptr %9, align 4, !tbaa !17
  %46 = sext i32 %45 to i64
  %47 = getelementptr inbounds i8, ptr %44, i64 %46
  %48 = load i8, ptr %47, align 1, !tbaa !19
  %49 = zext i8 %48 to i32
  %50 = load i32, ptr %9, align 4, !tbaa !17
  %51 = add nsw i32 %50, 1
  %52 = load i32, ptr %10, align 4, !tbaa !17
  %53 = icmp eq i32 %51, %52
  %54 = select i1 %53, ptr @.str.4, ptr @.str.25
  %55 = call i32 (ptr, ptr, ...) @BIO_printf(ptr noundef %43, ptr noundef @.str.24, i32 noundef %49, ptr noundef %54)
  %56 = icmp sle i32 %55, 0
  br i1 %56, label %57, label %58

57:                                               ; preds = %42
  store i32 0, ptr %4, align 4
  store i32 1, ptr %11, align 4
  br label %68

58:                                               ; preds = %42
  br label %59

59:                                               ; preds = %58
  %60 = load i32, ptr %9, align 4, !tbaa !17
  %61 = add nsw i32 %60, 1
  store i32 %61, ptr %9, align 4, !tbaa !17
  br label %18, !llvm.loop !45

62:                                               ; preds = %18
  %63 = load ptr, ptr %5, align 8, !tbaa !15
  %64 = call i32 @BIO_write(ptr noundef %63, ptr noundef @.str.7, i32 noundef 1)
  %65 = icmp ne i32 %64, 1
  br i1 %65, label %66, label %67

66:                                               ; preds = %62
  store i32 0, ptr %4, align 4
  store i32 1, ptr %11, align 4
  br label %68

67:                                               ; preds = %62
  store i32 1, ptr %4, align 4
  store i32 1, ptr %11, align 4
  br label %68

68:                                               ; preds = %67, %66, %57, %40, %33
  call void @llvm.lifetime.end.p0(i64 4, ptr %10) #4
  call void @llvm.lifetime.end.p0(i64 4, ptr %9) #4
  call void @llvm.lifetime.end.p0(i64 8, ptr %8) #4
  %69 = load i32, ptr %4, align 4
  ret i32 %69
}