; Function Attrs: nounwind uwtable
define range(i32 0, 2) i32 @X509_signature_dump(ptr noundef %0, ptr noundef readonly captures(none) %1, i32 noundef %2) local_unnamed_addr #0 {
  %4 = load i32, ptr %1, align 8, !tbaa !12
  %5 = getelementptr inbounds nuw i8, ptr %1, i64 8
  %6 = load ptr, ptr %5, align 8, !tbaa !18
  %7 = zext i32 %4 to i64
  %smax = tail call i32 @llvm.smax.i32(i32 %4, i32 0)
  %wide.trip.count = zext nneg i32 %smax to i64
  br label %8

8:                                                ; preds = %20, %3
  %indvars.iv = phi i64 [ %indvars.iv.next, %20 ], [ 0, %3 ]
  %exitcond.not = icmp eq i64 %indvars.iv, %wide.trip.count
  br i1 %exitcond.not, label %28, label %9

9:                                                ; preds = %8
  %10 = trunc nuw nsw i64 %indvars.iv to i32
  %11 = urem i32 %10, 18
  %12 = icmp eq i32 %11, 0
  br i1 %12, label %13, label %20

13:                                               ; preds = %9
  %.not19 = icmp eq i64 %indvars.iv, 0
  br i1 %.not19, label %17, label %14

14:                                               ; preds = %13
  %15 = tail call i32 @BIO_write(ptr noundef %0, ptr noundef nonnull @.str.7, i32 noundef 1) #4
  %16 = icmp slt i32 %15, 1
  br i1 %16, label %.loopexit, label %17

17:                                               ; preds = %14, %13
  %18 = tail call i32 @BIO_indent(ptr noundef %0, i32 noundef %2, i32 noundef %2) #4
  %19 = icmp slt i32 %18, 1
  br i1 %19, label %.loopexit, label %20

20:                                               ; preds = %17, %9
  %21 = getelementptr inbounds nuw i8, ptr %6, i64 %indvars.iv
  %22 = load i8, ptr %21, align 1, !tbaa !19
  %23 = zext i8 %22 to i32
  %indvars.iv.next = add nuw nsw i64 %indvars.iv, 1
  %24 = icmp eq i64 %indvars.iv.next, %7
  %25 = select i1 %24, ptr @.str.4, ptr @.str.25
  %26 = tail call i32 (ptr, ptr, ...) @BIO_printf(ptr noundef %0, ptr noundef nonnull @.str.24, i32 noundef %23, ptr noundef nonnull %25) #4
  %27 = icmp slt i32 %26, 1
  br i1 %27, label %.loopexit, label %8, !llvm.loop !28

28:                                               ; preds = %8
  %29 = tail call i32 @BIO_write(ptr noundef %0, ptr noundef nonnull @.str.7, i32 noundef 1) #4
  %.not = icmp eq i32 %29, 1
  %. = zext i1 %.not to i32
  br label %.loopexit

.loopexit:                                        ; preds = %20, %17, %14, %28
  %.0 = phi i32 [ %., %28 ], [ 0, %14 ], [ 0, %17 ], [ 0, %20 ]
  ret i32 %.0
}